target datalayout = "e-m:e-p270:32:32-p271:32:32-p272:64:64-i64:64-i128:128-f80:128-n8:16:32:64-S128"
target triple = "x86_64-pc-linux-gnu"

; Function Attrs: inlinehint mustprogress nounwind uwtable
define linkonce_odr noundef float @_ZSt4sqrtf(float noundef %0) #3 comdat {
  %2 = alloca float, align 4
  store float %0, ptr %2, align 4, !tbaa !11
  %3 = load float, ptr %2, align 4, !tbaa !11
  %4 = call float @sqrtf(float noundef %3) #14, !tbaa !4
  ret float %4
}

; Function Attrs: inlinehint mustprogress nounwind uwtable
define internal noundef float @_ZL5iprodPKfS0_(ptr noundef %0, ptr noundef %1) #3 {
  %3 = alloca ptr, align 8
  %4 = alloca ptr, align 8
  store ptr %0, ptr %3, align 8, !tbaa !28
  store ptr %1, ptr %4, align 8, !tbaa !28
  %5 = load ptr, ptr %3, align 8, !tbaa !28
  %6 = getelementptr inbounds float, ptr %5, i64 0
  %7 = load float, ptr %6, align 4, !tbaa !11
  %8 = load ptr, ptr %4, align 8, !tbaa !28
  %9 = getelementptr inbounds float, ptr %8, i64 0
  %10 = load float, ptr %9, align 4, !tbaa !11
  %11 = load ptr, ptr %3, align 8, !tbaa !28
  %12 = getelementptr inbounds float, ptr %11, i64 1
  %13 = load float, ptr %12, align 4, !tbaa !11
  %14 = load ptr, ptr %4, align 8, !tbaa !28
  %15 = getelementptr inbounds float, ptr %14, i64 1
  %16 = load float, ptr %15, align 4, !tbaa !11
  %17 = fmul float %13, %16
  %18 = call float @llvm.fmuladd.f32(float %7, float %10, float %17)
  %19 = load ptr, ptr %3, align 8, !tbaa !28
  %20 = getelementptr inbounds float, ptr %19, i64 2
  %21 = load float, ptr %20, align 4, !tbaa !11
  %22 = load ptr, ptr %4, align 8, !tbaa !28
  %23 = getelementptr inbounds float, ptr %22, i64 2
  %24 = load float, ptr %23, align 4, !tbaa !11
  %25 = call float @llvm.fmuladd.f32(float %21, float %24, float %18)
  ret float %25
}

; Function Attrs: inlinehint mustprogress uwtable
define internal noundef float @_ZL4normPKf(ptr noundef %0) #4 {
  %2 = alloca ptr, align 8
  store ptr %0, ptr %2, align 8, !tbaa !28
  %3 = load ptr, ptr %2, align 8, !tbaa !28
  %4 = load ptr, ptr %2, align 8, !tbaa !28
  %5 = call noundef float @_ZL5iprodPKfS0_(ptr noundef %3, ptr noundef %4)
  %6 = call noundef float @_ZSt4sqrtf(float noundef %5)
  ret float %6
}

; Function Attrs: inlinehint mustprogress nounwind uwtable
define internal void @_ZL8rvec_subPKfS0_Pf(ptr noundef %0, ptr noundef %1, ptr noundef %2) #3 {
  %4 = alloca ptr, align 8
  %5 = alloca ptr, align 8
  %6 = alloca ptr, align 8
  %7 = alloca float, align 4
  %8 = alloca float, align 4
  %9 = alloca float, align 4
  store ptr %0, ptr %4, align 8, !tbaa !28
  store ptr %1, ptr %5, align 8, !tbaa !28
  store ptr %2, ptr %6, align 8, !tbaa !28
  call void @llvm.lifetime.start.p0(i64 4, ptr %7) #14
  call void @llvm.lifetime.start.p0(i64 4, ptr %8) #14
  call void @llvm.lifetime.start.p0(i64 4, ptr %9) #14
  %10 = load ptr, ptr %4, align 8, !tbaa !28
  %11 = getelementptr inbounds float, ptr %10, i64 0
  %12 = load float, ptr %11, align 4, !tbaa !11
  %13 = load ptr, ptr %5, align 8, !tbaa !28
  %14 = getelementptr inbounds float, ptr %13, i64 0
  %15 = load float, ptr %14, align 4, !tbaa !11
  %16 = fsub float %12, %15
  store float %16, ptr %7, align 4, !tbaa !11
  %17 = load ptr, ptr %4, align 8, !tbaa !28
  %18 = getelementptr inbounds float, ptr %17, i64 1
  %19 = load float, ptr %18, align 4, !tbaa !11
  %20 = load ptr, ptr %5, align 8, !tbaa !28
  %21 = getelementptr inbounds float, ptr %20, i64 1
  %22 = load float, ptr %21, align 4, !tbaa !11
  %23 = fsub float %19, %22
  store float %23, ptr %8, align 4, !tbaa !11
  %24 = load ptr, ptr %4, align 8, !tbaa !28
  %25 = getelementptr inbounds float, ptr %24, i64 2
  %26 = load float, ptr %25, align 4, !tbaa !11
  %27 = load ptr, ptr %5, align 8, !tbaa !28
  %28 = getelementptr inbounds float, ptr %27, i64 2
  %29 = load float, ptr %28, align 4, !tbaa !11
  %30 = fsub float %26, %29
  store float %30, ptr %9, align 4, !tbaa !11
  %31 = load float, ptr %7, align 4, !tbaa !11
  %32 = load ptr, ptr %6, align 8, !tbaa !28
  %33 = getelementptr inbounds float, ptr %32, i64 0
  store float %31, ptr %33, align 4, !tbaa !11
  %34 = load float, ptr %8, align 4, !tbaa !11
  %35 = load ptr, ptr %6, align 8, !tbaa !28
  %36 = getelementptr inbounds float, ptr %35, i64 1
  store float %34, ptr %36, align 4, !tbaa !11
  %37 = load float, ptr %9, align 4, !tbaa !11
  %38 = load ptr, ptr %6, align 8, !tbaa !28
  %39 = getelementptr inbounds float, ptr %38, i64 2
  store float %37, ptr %39, align 4, !tbaa !11
  call void @llvm.lifetime.end.p0(i64 4, ptr %9) #14
  call void @llvm.lifetime.end.p0(i64 4, ptr %8) #14
  call void @llvm.lifetime.end.p0(i64 4, ptr %7) #14
  ret void
}

; Function Attrs: mustprogress uwtable
define noundef float @_Z7ahx_leniPKiPA3_f(i32 noundef %0, ptr noundef %1, ptr noundef %2) #0 {
  %4 = alloca i32, align 4
  %5 = alloca ptr, align 8
  %6 = alloca ptr, align 8
  %7 = alloca [3 x float], align 4
  store i32 %0, ptr %4, align 4, !tbaa !4
  store ptr %1, ptr %5, align 8, !tbaa !26
  store ptr %2, ptr %6, align 8, !tbaa !28
  call void @llvm.lifetime.start.p0(i64 12, ptr %7) #14
  %8 = load ptr, ptr %6, align 8, !tbaa !28
  %9 = load ptr, ptr %5, align 8, !tbaa !26
  %10 = getelementptr inbounds i32, ptr %9, i64 0
  %11 = load i32, ptr %10, align 4, !tbaa !4
  %12 = sext i32 %11 to i64
  %13 = getelementptr inbounds [3 x float], ptr %8, i64 %12
  %14 = getelementptr inbounds [3 x float], ptr %13, i64 0, i64 0
  %15 = load ptr, ptr %6, align 8, !tbaa !28
  %16 = load ptr, ptr %5, align 8, !tbaa !26
  %17 = load i32, ptr %4, align 4, !tbaa !4
  %18 = sub nsw i32 %17, 1
  %19 = sext i32 %18 to i64
  %20 = getelementptr inbounds i32, ptr %16, i64 %19
  %21 = load i32, ptr %20, align 4, !tbaa !4
  %22 = sext i32 %21 to i64
  %23 = getelementptr inbounds [3 x float], ptr %15, i64 %22
  %24 = getelementptr inbounds [3 x float], ptr %23, i64 0, i64 0
  %25 = getelementptr inbounds [3 x float], ptr %7, i64 0, i64 0
  call void @_ZL8rvec_subPKfS0_Pf(ptr noundef %14, ptr noundef %24, ptr noundef %25)
  %26 = getelementptr inbounds [3 x float], ptr %7, i64 0, i64 0
  %27 = call noundef float @_ZL4normPKf(ptr noundef %26)
  call void @llvm.lifetime.end.p0(i64 12, ptr %7) #14
  ret float %27
}