; Function Attrs: mustprogress nofree norecurse nosync nounwind willreturn memory(argmem: read) uwtable
define noundef float @_Z7ahx_leniPKiPA3_f(i32 noundef %0, ptr noundef readonly captures(none) %1, ptr noundef readonly captures(none) %2) local_unnamed_addr #2 {
  %4 = load i32, ptr %1, align 4, !tbaa !20
  %5 = sext i32 %4 to i64
  %6 = getelementptr inbounds [3 x float], ptr %2, i64 %5
  %7 = sext i32 %0 to i64
  %8 = getelementptr i32, ptr %1, i64 %7
  %9 = getelementptr i8, ptr %8, i64 -4
  %10 = load i32, ptr %9, align 4, !tbaa !20
  %11 = sext i32 %10 to i64
  %12 = getelementptr inbounds [3 x float], ptr %2, i64 %11
  %13 = load float, ptr %6, align 4, !tbaa !21
  %14 = load float, ptr %12, align 4, !tbaa !21
  %15 = fsub float %13, %14
  %16 = getelementptr inbounds nuw i8, ptr %6, i64 4
  %17 = load float, ptr %16, align 4, !tbaa !21
  %18 = getelementptr inbounds nuw i8, ptr %12, i64 4
  %19 = load float, ptr %18, align 4, !tbaa !21
  %20 = fsub float %17, %19
  %21 = getelementptr inbounds nuw i8, ptr %6, i64 8
  %22 = load float, ptr %21, align 4, !tbaa !21
  %23 = getelementptr inbounds nuw i8, ptr %12, i64 8
  %24 = load float, ptr %23, align 4, !tbaa !21
  %25 = fsub float %22, %24
  %26 = fmul float %20, %20
  %27 = tail call float @llvm.fmuladd.f32(float %15, float %15, float %26)
  %28 = tail call noundef float @llvm.fmuladd.f32(float %25, float %25, float %27)
  %sqrt.i = tail call noundef float @llvm.sqrt.f32(float %28)
  ret float %sqrt.i
}